; Function Attrs: mustprogress nounwind uwtable
define internal void @_ZN4node9inspector12_GLOBAL__N_19WsHandler5OnEofEv(ptr noundef nonnull align 8 dereferenceable(57) %this) unnamed_addr #0 align 2 {
entry:
  %tcp_ = getelementptr inbounds i8, ptr %this, i64 16
  %0 = load ptr, ptr %tcp_, align 8
  store ptr null, ptr %tcp_, align 8
  %tobool.not.i.i = icmp eq ptr %0, null
  br i1 %tobool.not.i.i, label %_ZNSt10unique_ptrIN4node9inspector9TcpHolderENS0_15FunctionDeleterIS2_XadL_ZNS2_20DisconnectAndDisposeEPS2_EEEEE5resetES4_.exit, label %if.then.i.i

if.then.i.i:                                      ; preds = %entry
  tail call void @uv_close(ptr noundef nonnull %0, ptr noundef nonnull @_ZN4node9inspector9TcpHolder8OnClosedEP11uv_handle_s) #19
  br label %_ZNSt10unique_ptrIN4node9inspector9TcpHolderENS0_15FunctionDeleterIS2_XadL_ZNS2_20DisconnectAndDisposeEPS2_EEEEE5resetES4_.exit

_ZNSt10unique_ptrIN4node9inspector9TcpHolderENS0_15FunctionDeleterIS2_XadL_ZNS2_20DisconnectAndDisposeEPS2_EEEEE5resetES4_.exit: ; preds = %entry, %if.then.i.i
  %dispose_ = getelementptr inbounds i8, ptr %this, i64 56
  %1 = load i8, ptr %dispose_, align 8
  %2 = and i8 %1, 1
  %tobool.not1 = icmp eq i8 %2, 0
  br i1 %tobool.not1, label %if.end, label %delete.notnull

delete.notnull:                                   ; preds = %_ZNSt10unique_ptrIN4node9inspector9TcpHolderENS0_15FunctionDeleterIS2_XadL_ZNS2_20DisconnectAndDisposeEPS2_EEEEE5resetES4_.exit
  %vtable = load ptr, ptr %this, align 8
  %vfn = getelementptr inbounds i8, ptr %vtable, i64 56
  %3 = load ptr, ptr %vfn, align 8
  tail call void %3(ptr noundef nonnull align 8 dereferenceable(57) %this) #19
  br label %if.end

if.end:                                           ; preds = %delete.notnull, %_ZNSt10unique_ptrIN4node9inspector9TcpHolderENS0_15FunctionDeleterIS2_XadL_ZNS2_20DisconnectAndDisposeEPS2_EEEEE5resetES4_.exit
  ret void
}